target datalayout = "e-m:e-p270:32:32-p271:32:32-p272:64:64-i64:64-i128:128-f80:128-n8:16:32:64-S128"
target triple = "x86_64-pc-linux-gnu"

%struct.TEST_ENCAPDATA = type { ptr, ptr, i64, ptr, i64, ptr, i64, ptr, i64, ptr, i64, ptr, i64, ptr, i64 }

@.str.3 = private unnamed_addr constant [38 x i8] c"../openssl/test/evp_pkey_dhkem_test.c\00", align 1
@rctx = internal global [2 x ptr] zeroinitializer, align 16
@.str.50 = private unnamed_addr constant [2 x i8] c"1\00", align 1
@.str.65 = private unnamed_addr constant [37 x i8] c"EVP_PKEY_encapsulate_init(ctx, NULL)\00", align 1
@.str.72 = private unnamed_addr constant [37 x i8] c"EVP_PKEY_decapsulate_init(ctx, NULL)\00", align 1
@.str.75 = private unnamed_addr constant [50 x i8] c"EVP_PKEY_encapsulate(ctx, NULL, &len, NULL, NULL)\00", align 1
@.str.76 = private unnamed_addr constant [3 x i8] c"-2\00", align 1
@.str.77 = private unnamed_addr constant [75 x i8] c"EVP_PKEY_decapsulate(ctx, NULL, &len, t->expected_enc, t->expected_enclen)\00", align 1

; Function Attrs: nounwind uwtable
define internal i32 @test_no_operation_set(i32 noundef %0) #0 {
  %2 = alloca i32, align 4
  %3 = alloca ptr, align 8
  %4 = alloca ptr, align 8
  %5 = alloca i64, align 8
  store i32 %0, ptr %2, align 4, !tbaa !10
  call void @llvm.lifetime.start.p0(i64 8, ptr %3) #6
  %6 = load i32, ptr %2, align 4, !tbaa !10
  %7 = sext i32 %6 to i64
  %8 = getelementptr inbounds [2 x ptr], ptr @rctx, i64 0, i64 %7
  %9 = load ptr, ptr %8, align 8, !tbaa !19
  store ptr %9, ptr %3, align 8, !tbaa !19
  call void @llvm.lifetime.start.p0(i64 8, ptr %4) #6
  %10 = load i32, ptr %2, align 4, !tbaa !10
  %11 = sext i32 %10 to i64
  %12 = getelementptr inbounds [5 x %struct.TEST_ENCAPDATA], ptr @ec_encapdata, i64 0, i64 %11
  store ptr %12, ptr %4, align 8, !tbaa !12
  call void @llvm.lifetime.start.p0(i64 8, ptr %5) #6
  store i64 0, ptr %5, align 8, !tbaa !13
  %13 = load ptr, ptr %3, align 8, !tbaa !19
  %14 = call i32 @EVP_PKEY_encapsulate_init(ptr noundef %13, ptr noundef null)
  %15 = call i32 @test_int_eq(ptr noundef @.str.3, i32 noundef 174, ptr noundef @.str.65, ptr noundef @.str.50, i32 noundef %14, i32 noundef 1)
  %16 = icmp ne i32 %15, 0
  br i1 %16, label %17, label %38

17:                                               ; preds = %1
  %18 = load ptr, ptr %3, align 8, !tbaa !19
  %19 = call i32 @EVP_PKEY_encapsulate(ptr noundef %18, ptr noundef null, ptr noundef %5, ptr noundef null, ptr noundef null)
  %20 = call i32 @test_int_eq(ptr noundef @.str.3, i32 noundef 175, ptr noundef @.str.75, ptr noundef @.str.76, i32 noundef %19, i32 noundef -2)
  %21 = icmp ne i32 %20, 0
  br i1 %21, label %22, label %38

22:                                               ; preds = %17
  %23 = load ptr, ptr %3, align 8, !tbaa !19
  %24 = call i32 @EVP_PKEY_decapsulate_init(ptr noundef %23, ptr noundef null)
  %25 = call i32 @test_int_eq(ptr noundef @.str.3, i32 noundef 176, ptr noundef @.str.72, ptr noundef @.str.50, i32 noundef %24, i32 noundef 1)
  %26 = icmp ne i32 %25, 0
  br i1 %26, label %27, label %38

27:                                               ; preds = %22
  %28 = load ptr, ptr %3, align 8, !tbaa !19
  %29 = load ptr, ptr %4, align 8, !tbaa !12
  %30 = getelementptr inbounds nuw %struct.TEST_ENCAPDATA, ptr %29, i32 0, i32 7
  %31 = load ptr, ptr %30, align 8, !tbaa !35
  %32 = load ptr, ptr %4, align 8, !tbaa !12
  %33 = getelementptr inbounds nuw %struct.TEST_ENCAPDATA, ptr %32, i32 0, i32 8
  %34 = load i64, ptr %33, align 8, !tbaa !36
  %35 = call i32 @EVP_PKEY_decapsulate(ptr noundef %28, ptr noundef null, ptr noundef %5, ptr noundef %31, i64 noundef %34)
  %36 = call i32 @test_int_eq(ptr noundef @.str.3, i32 noundef 179, ptr noundef @.str.77, ptr noundef @.str.76, i32 noundef %35, i32 noundef -2)
  %37 = icmp ne i32 %36, 0
  br label %38

38:                                               ; preds = %27, %22, %17, %1
  %39 = phi i1 [ false, %22 ], [ false, %17 ], [ false, %1 ], [ %37, %27 ]
  %40 = zext i1 %39 to i32
  call void @llvm.lifetime.end.p0(i64 8, ptr %5) #6
  call void @llvm.lifetime.end.p0(i64 8, ptr %4) #6
  call void @llvm.lifetime.end.p0(i64 8, ptr %3) #6
  ret i32 %40
}