; Function Attrs: nounwind uwtable
define internal range(i32 0, 2) i32 @test_no_operation_set(i32 noundef %0) #0 {
  %2 = alloca i64, align 8
  %3 = sext i32 %0 to i64
  %4 = getelementptr inbounds [2 x ptr], ptr @rctx, i64 0, i64 %3
  %5 = load ptr, ptr %4, align 8, !tbaa !19
  %6 = getelementptr inbounds [5 x %struct.TEST_ENCAPDATA], ptr @ec_encapdata, i64 0, i64 %3
  call void @llvm.lifetime.start.p0(i64 8, ptr nonnull %2) #5
  store i64 0, ptr %2, align 8, !tbaa !13
  %7 = tail call i32 @EVP_PKEY_encapsulate_init(ptr noundef %5, ptr noundef null) #5
  %8 = tail call i32 @test_int_eq(ptr noundef nonnull @.str.3, i32 noundef 174, ptr noundef nonnull @.str.65, ptr noundef nonnull @.str.50, i32 noundef %7, i32 noundef 1) #5
  %.not = icmp eq i32 %8, 0
  br i1 %.not, label %24, label %9

9:                                                ; preds = %1
  %10 = call i32 @EVP_PKEY_encapsulate(ptr noundef %5, ptr noundef null, ptr noundef nonnull %2, ptr noundef null, ptr noundef null) #5
  %11 = call i32 @test_int_eq(ptr noundef nonnull @.str.3, i32 noundef 175, ptr noundef nonnull @.str.75, ptr noundef nonnull @.str.76, i32 noundef %10, i32 noundef -2) #5
  %.not7 = icmp eq i32 %11, 0
  br i1 %.not7, label %24, label %12

12:                                               ; preds = %9
  %13 = call i32 @EVP_PKEY_decapsulate_init(ptr noundef %5, ptr noundef null) #5
  %14 = call i32 @test_int_eq(ptr noundef nonnull @.str.3, i32 noundef 176, ptr noundef nonnull @.str.72, ptr noundef nonnull @.str.50, i32 noundef %13, i32 noundef 1) #5
  %.not8 = icmp eq i32 %14, 0
  br i1 %.not8, label %24, label %15

15:                                               ; preds = %12
  %16 = getelementptr inbounds nuw i8, ptr %6, i64 56
  %17 = load ptr, ptr %16, align 8, !tbaa !31
  %18 = getelementptr inbounds nuw i8, ptr %6, i64 64
  %19 = load i64, ptr %18, align 8, !tbaa !32
  %20 = call i32 @EVP_PKEY_decapsulate(ptr noundef %5, ptr noundef null, ptr noundef nonnull %2, ptr noundef %17, i64 noundef %19) #5
  %21 = call i32 @test_int_eq(ptr noundef nonnull @.str.3, i32 noundef 179, ptr noundef nonnull @.str.77, ptr noundef nonnull @.str.76, i32 noundef %20, i32 noundef -2) #5
  %22 = icmp ne i32 %21, 0
  %23 = zext i1 %22 to i32
  br label %24

24:                                               ; preds = %15, %12, %9, %1
  %25 = phi i32 [ 0, %12 ], [ 0, %9 ], [ 0, %1 ], [ %23, %15 ]
  call void @llvm.lifetime.end.p0(i64 8, ptr nonnull %2) #5
  ret i32 %25
}